target datalayout = "e-m:e-p270:32:32-p271:32:32-p272:64:64-i64:64-i128:128-f80:128-n8:16:32:64-S128"
target triple = "x86_64-pc-linux-gnu"

%struct.pj_ctx = type <{ %"class.std::__cxx11::basic_string", i32, i32, i8, i8, [6 x i8], ptr, ptr, ptr, i32, i8, [3 x i8], i32, [4 x i8], %"class.std::__cxx11::basic_string", %"class.std::vector.8", ptr, ptr, ptr, i8, [7 x i8], %struct.projFileApiCallbackAndData, %"class.std::__cxx11::basic_string", %"class.std::__cxx11::basic_string", i8, [7 x i8], %"class.std::__cxx11::basic_string", %struct.projNetworkCallbacksAndData, %"class.std::__cxx11::basic_string", %struct.projGridChunkCache, i32, i32, i32, [4 x i8] }>
%"class.std::vector.8" = type { %"struct.std::_Vector_base.9" }
%"struct.std::_Vector_base.9" = type { %"struct.std::_Vector_base<std::__cxx11::basic_string<char>, std::allocator<std::__cxx11::basic_string<char>>>::_Vector_impl" }
%"struct.std::_Vector_base<std::__cxx11::basic_string<char>, std::allocator<std::__cxx11::basic_string<char>>>::_Vector_impl" = type { %"struct.std::_Vector_base<std::__cxx11::basic_string<char>, std::allocator<std::__cxx11::basic_string<char>>>::_Vector_impl_data" }
%"struct.std::_Vector_base<std::__cxx11::basic_string<char>, std::allocator<std::__cxx11::basic_string<char>>>::_Vector_impl_data" = type { ptr, ptr, ptr }
%struct.projFileApiCallbackAndData = type { ptr, ptr, ptr, ptr, ptr, ptr, ptr, ptr, ptr, ptr, ptr }
%struct.projNetworkCallbacksAndData = type { i8, ptr, ptr, ptr, ptr, ptr }
%"class.std::__cxx11::basic_string" = type { %"struct.std::__cxx11::basic_string<char>::_Alloc_hider", i64, %union.anon }
%"struct.std::__cxx11::basic_string<char>::_Alloc_hider" = type { ptr }
%union.anon = type { i64, [8 x i8] }
%struct.projGridChunkCache = type <{ i8, [7 x i8], %"class.std::__cxx11::basic_string", i64, i32, [4 x i8] }>
%struct.PJconsts = type <{ ptr, ptr, ptr, ptr, ptr, ptr, ptr, ptr, ptr, ptr, ptr, ptr, i32, [4 x i8], ptr, ptr, ptr, ptr, ptr, ptr, ptr, ptr, double, double, double, double, double, double, double, double, double, double, double, double, double, double, double, double, double, double, double, double, double, double, i32, i32, i32, i32, i32, i32, i32, i32, i32, i32, i32, [4 x i8], ptr, ptr, ptr, ptr, ptr, ptr, double, double, double, double, double, double, double, double, double, double, double, i32, [4 x i8], [7 x double], i32, [4 x i8], ptr, ptr, double, double, i32, [4 x i8], %"class.std::shared_ptr", i8, [7 x i8], double, i8, [7 x i8], %"class.std::__cxx11::basic_string", %"class.std::__cxx11::basic_string", %"class.std::__cxx11::basic_string", i8, [7 x i8], %"class.std::vector", i32, [4 x i8], %"class.std::vector.3", i32, i8, i8, i8, i8 }>
%"class.std::shared_ptr" = type { %"class.std::__shared_ptr" }
%"class.std::__shared_ptr" = type { ptr, %"class.std::__shared_count" }
%"class.std::__shared_count" = type { ptr }
%"class.std::vector" = type { %"struct.std::_Vector_base" }
%"struct.std::_Vector_base" = type { %"struct.std::_Vector_base<osgeo::proj::operation::GridDescription, std::allocator<osgeo::proj::operation::GridDescription>>::_Vector_impl" }
%"struct.std::_Vector_base<osgeo::proj::operation::GridDescription, std::allocator<osgeo::proj::operation::GridDescription>>::_Vector_impl" = type { %"struct.std::_Vector_base<osgeo::proj::operation::GridDescription, std::allocator<osgeo::proj::operation::GridDescription>>::_Vector_impl_data" }
%"struct.std::_Vector_base<osgeo::proj::operation::GridDescription, std::allocator<osgeo::proj::operation::GridDescription>>::_Vector_impl_data" = type { ptr, ptr, ptr }
%"class.std::vector.3" = type { %"struct.std::_Vector_base.4" }
%"struct.std::_Vector_base.4" = type { %"struct.std::_Vector_base<PJCoordOperation, std::allocator<PJCoordOperation>>::_Vector_impl" }
%"struct.std::_Vector_base<PJCoordOperation, std::allocator<PJCoordOperation>>::_Vector_impl" = type { %"struct.std::_Vector_base<PJCoordOperation, std::allocator<PJCoordOperation>>::_Vector_impl_data" }
%"struct.std::_Vector_base<PJCoordOperation, std::allocator<PJCoordOperation>>::_Vector_impl_data" = type { ptr, ptr, ptr }

@_ZZ18pj_get_default_ctxvE15default_context = internal global %struct.pj_ctx zeroinitializer, align 8
@_ZGVZ18pj_get_default_ctxvE15default_context = internal global i64 0, align 8
@__dso_handle = external hidden global i8
@_ZN6pj_ctxD1Ev = hidden unnamed_addr alias void (ptr), ptr @_ZN6pj_ctxD2Ev

; Function Attrs: mustprogress uwtable
define noundef ptr @_Z18pj_get_default_ctxv() #0 personality ptr @__gxx_personality_v0 {
  %1 = alloca ptr, align 8
  %2 = alloca i32, align 4
  %3 = load atomic i8, ptr @_ZGVZ18pj_get_default_ctxvE15default_context acquire, align 8
  %4 = icmp eq i8 %3, 0
  br i1 %4, label %5, label %11, !prof !4

5:                                                ; preds = %0
  %6 = call i32 @__cxa_guard_acquire(ptr @_ZGVZ18pj_get_default_ctxvE15default_context) #10
  %7 = icmp ne i32 %6, 0
  br i1 %7, label %8, label %11

8:                                                ; preds = %5
  invoke void @_ZN6pj_ctx13createDefaultEv(ptr dead_on_unwind writable sret(%struct.pj_ctx) align 8 @_ZZ18pj_get_default_ctxvE15default_context)
          to label %9 unwind label %12

9:                                                ; preds = %8
  %10 = call i32 @__cxa_atexit(ptr @_ZN6pj_ctxD1Ev, ptr @_ZZ18pj_get_default_ctxvE15default_context, ptr @__dso_handle) #10
  call void @__cxa_guard_release(ptr @_ZGVZ18pj_get_default_ctxvE15default_context) #10
  br label %11

11:                                               ; preds = %9, %5, %0
  ret ptr @_ZZ18pj_get_default_ctxvE15default_context

12:                                               ; preds = %8
  %13 = landingpad { ptr, i32 }
          cleanup
  %14 = extractvalue { ptr, i32 } %13, 0
  store ptr %14, ptr %1, align 8
  %15 = extractvalue { ptr, i32 } %13, 1
  store i32 %15, ptr %2, align 4
  call void @__cxa_guard_abort(ptr @_ZGVZ18pj_get_default_ctxvE15default_context) #10
  br label %16

16:                                               ; preds = %12
  %17 = load ptr, ptr %1, align 8
  %18 = load i32, ptr %2, align 4
  %19 = insertvalue { ptr, i32 } poison, ptr %17, 0
  %20 = insertvalue { ptr, i32 } %19, i32 %18, 1
  resume { ptr, i32 } %20
}

; Function Attrs: mustprogress uwtable
define hidden noundef ptr @_Z10pj_get_ctxP8PJconsts(ptr noundef %0) #0 {
  %2 = alloca ptr, align 8
  %3 = alloca ptr, align 8
  store ptr %0, ptr %3, align 8
  %4 = load ptr, ptr %3, align 8
  %5 = icmp eq ptr null, %4
  br i1 %5, label %6, label %8

6:                                                ; preds = %1
  %7 = call noundef ptr @_Z18pj_get_default_ctxv()
  store ptr %7, ptr %2, align 8
  br label %19

8:                                                ; preds = %1
  %9 = load ptr, ptr %3, align 8
  %10 = getelementptr inbounds %struct.PJconsts, ptr %9, i32 0, i32 0
  %11 = load ptr, ptr %10, align 8
  %12 = icmp eq ptr null, %11
  br i1 %12, label %13, label %15

13:                                               ; preds = %8
  %14 = call noundef ptr @_Z18pj_get_default_ctxv()
  store ptr %14, ptr %2, align 8
  br label %19

15:                                               ; preds = %8
  %16 = load ptr, ptr %3, align 8
  %17 = getelementptr inbounds %struct.PJconsts, ptr %16, i32 0, i32 0
  %18 = load ptr, ptr %17, align 8
  store ptr %18, ptr %2, align 8
  br label %19

19:                                               ; preds = %15, %13, %6
  %20 = load ptr, ptr %2, align 8
  ret ptr %20
}