; Function Attrs: mustprogress uwtable
define hidden noundef nonnull ptr @_Z10pj_get_ctxP8PJconsts(ptr noundef readonly %0) local_unnamed_addr #0 personality ptr @__gxx_personality_v0 {
  %2 = icmp eq ptr %0, null
  br i1 %2, label %3, label %11

3:                                                ; preds = %1
  %4 = load atomic i8, ptr @_ZGVZ18pj_get_default_ctxvE15default_context acquire, align 8
  %5 = icmp eq i8 %4, 0
  br i1 %5, label %6, label %_Z18pj_get_default_ctxv.exit, !prof !4

6:                                                ; preds = %3
  %7 = tail call i32 @__cxa_guard_acquire(ptr nonnull @_ZGVZ18pj_get_default_ctxvE15default_context) #15
  %.not.i = icmp eq i32 %7, 0
  br i1 %.not.i, label %_Z18pj_get_default_ctxv.exit, label %8

8:                                                ; preds = %6
  invoke void @_ZN6pj_ctx13createDefaultEv(ptr dead_on_unwind nonnull writable sret(%struct.pj_ctx) align 8 @_ZZ18pj_get_default_ctxvE15default_context)
          to label %_Z18pj_get_default_ctxv.exit.sink.split unwind label %9

common.resume:                                    ; preds = %20, %9
  %common.resume.op = phi { ptr, i32 } [ %10, %9 ], [ %21, %20 ]
  tail call void @__cxa_guard_abort(ptr nonnull @_ZGVZ18pj_get_default_ctxvE15default_context) #15
  resume { ptr, i32 } %common.resume.op

9:                                                ; preds = %8
  %10 = landingpad { ptr, i32 }
          cleanup
  br label %common.resume

11:                                               ; preds = %1
  %12 = load ptr, ptr %0, align 8
  %13 = icmp eq ptr %12, null
  br i1 %13, label %14, label %_Z18pj_get_default_ctxv.exit

14:                                               ; preds = %11
  %15 = load atomic i8, ptr @_ZGVZ18pj_get_default_ctxvE15default_context acquire, align 8
  %16 = icmp eq i8 %15, 0
  br i1 %16, label %17, label %_Z18pj_get_default_ctxv.exit, !prof !4

17:                                               ; preds = %14
  %18 = tail call i32 @__cxa_guard_acquire(ptr nonnull @_ZGVZ18pj_get_default_ctxvE15default_context) #15
  %.not.i6 = icmp eq i32 %18, 0
  br i1 %.not.i6, label %_Z18pj_get_default_ctxv.exit, label %19

19:                                               ; preds = %17
  invoke void @_ZN6pj_ctx13createDefaultEv(ptr dead_on_unwind nonnull writable sret(%struct.pj_ctx) align 8 @_ZZ18pj_get_default_ctxvE15default_context)
          to label %_Z18pj_get_default_ctxv.exit.sink.split unwind label %20

20:                                               ; preds = %19
  %21 = landingpad { ptr, i32 }
          cleanup
  br label %common.resume

_Z18pj_get_default_ctxv.exit.sink.split:          ; preds = %19, %8
  %22 = tail call i32 @__cxa_atexit(ptr nonnull @_ZN6pj_ctxD2Ev, ptr nonnull @_ZZ18pj_get_default_ctxvE15default_context, ptr nonnull @__dso_handle) #15
  tail call void @__cxa_guard_release(ptr nonnull @_ZGVZ18pj_get_default_ctxvE15default_context) #15
  br label %_Z18pj_get_default_ctxv.exit

_Z18pj_get_default_ctxv.exit:                     ; preds = %_Z18pj_get_default_ctxv.exit.sink.split, %17, %14, %6, %3, %11
  %.0 = phi ptr [ %12, %11 ], [ @_ZZ18pj_get_default_ctxvE15default_context, %3 ], [ @_ZZ18pj_get_default_ctxvE15default_context, %6 ], [ @_ZZ18pj_get_default_ctxvE15default_context, %14 ], [ @_ZZ18pj_get_default_ctxvE15default_context, %17 ], [ @_ZZ18pj_get_default_ctxvE15default_context, %_Z18pj_get_default_ctxv.exit.sink.split ]
  ret ptr %.0
}